target datalayout = "e-m:e-p270:32:32-p271:32:32-p272:64:64-i64:64-i128:128-f80:128-n8:16:32:64-S128"
target triple = "x86_64-pc-linux-gnu"

%struct.XML_Parser_Struct = type { i32, ptr, ptr, ptr, ptr, ptr, ptr, ptr, ptr, ptr, ptr, ptr, ptr, ptr, ptr }

; Function Attrs: nounwind uwtable
define internal void @notation_decl_handler(ptr noundef %0, ptr noundef %1, ptr noundef %2, ptr noundef %3) #0 {
  %5 = alloca ptr, align 8
  %6 = alloca ptr, align 8
  %7 = alloca ptr, align 8
  %8 = alloca ptr, align 8
  %9 = alloca ptr, align 8
  %10 = alloca i32, align 4
  store ptr %0, ptr %5, align 8, !tbaa !53
  store ptr %1, ptr %6, align 8, !tbaa !4
  store ptr %2, ptr %7, align 8, !tbaa !4
  store ptr %3, ptr %8, align 8, !tbaa !4
  call void @llvm.lifetime.start.p0(i64 8, ptr %9) #8
  %11 = load ptr, ptr %5, align 8, !tbaa !53
  store ptr %11, ptr %9, align 8, !tbaa !11
  %12 = load ptr, ptr %9, align 8, !tbaa !11
  %13 = getelementptr inbounds nuw %struct.XML_Parser_Struct, ptr %12, i32 0, i32 11
  %14 = load ptr, ptr %13, align 8, !tbaa !62
  %15 = icmp eq ptr %14, null
  br i1 %15, label %16, label %17

16:                                               ; preds = %4
  store i32 1, ptr %10, align 4
  br label %27

17:                                               ; preds = %4
  %18 = load ptr, ptr %9, align 8, !tbaa !11
  %19 = getelementptr inbounds nuw %struct.XML_Parser_Struct, ptr %18, i32 0, i32 11
  %20 = load ptr, ptr %19, align 8, !tbaa !62
  %21 = load ptr, ptr %9, align 8, !tbaa !11
  %22 = getelementptr inbounds nuw %struct.XML_Parser_Struct, ptr %21, i32 0, i32 2
  %23 = load ptr, ptr %22, align 8, !tbaa !54
  %24 = load ptr, ptr %6, align 8, !tbaa !4
  %25 = load ptr, ptr %8, align 8, !tbaa !4
  %26 = load ptr, ptr %7, align 8, !tbaa !4
  call void %20(ptr noundef %23, ptr noundef %24, ptr noundef null, ptr noundef %25, ptr noundef %26)
  store i32 0, ptr %10, align 4
  br label %27

27:                                               ; preds = %17, %16
  call void @llvm.lifetime.end.p0(i64 8, ptr %9) #8
  %28 = load i32, ptr %10, align 4
  switch i32 %28, label %30 [
    i32 0, label %29
    i32 1, label %29
  ]

29:                                               ; preds = %27, %27
  ret void

30:                                               ; preds = %27
  unreachable
}