; Function Attrs: nounwind uwtable
define internal void @notation_decl_handler(ptr noundef readonly captures(none) %0, ptr noundef %1, ptr noundef %2, ptr noundef %3) #0 {
  %5 = getelementptr inbounds nuw i8, ptr %0, i64 88
  %6 = load ptr, ptr %5, align 8, !tbaa !55
  %7 = icmp eq ptr %6, null
  br i1 %7, label %11, label %8

8:                                                ; preds = %4
  %9 = getelementptr inbounds nuw i8, ptr %0, i64 16
  %10 = load ptr, ptr %9, align 8, !tbaa !47
  tail call void %6(ptr noundef %10, ptr noundef %1, ptr noundef null, ptr noundef %3, ptr noundef %2) #11
  br label %11

11:                                               ; preds = %4, %8
  ret void
}